ARM GAS  C:\Users\WORKBE~1\AppData\Local\Temp\ccFxyL3g.s 			page 1


   1              		.syntax unified
   2              		.cpu cortex-m3
   3              		.fpu softvfp
   4              		.eabi_attribute 20, 1
   5              		.eabi_attribute 21, 1
   6              		.eabi_attribute 23, 3
   7              		.eabi_attribute 24, 1
   8              		.eabi_attribute 25, 1
   9              		.eabi_attribute 26, 1
  10              		.eabi_attribute 30, 6
  11              		.eabi_attribute 34, 1
  12              		.eabi_attribute 18, 4
  13              		.thumb
  14              		.file	"DataFetch.c"
  15              		.text
  16              	.Ltext0:
  17              		.cfi_sections	.debug_frame
  18              		.section	.text.HEX_ReadSiliconId,"ax",%progbits
  19              		.align	2
  20              		.global	HEX_ReadSiliconId
  21              		.thumb
  22              		.thumb_func
  23              		.type	HEX_ReadSiliconId, %function
  24              	HEX_ReadSiliconId:
  25              	.LFB63:
  26              		.file 1 "DataFetch.c"
   1:DataFetch.c   **** /******************************************************************************
   2:DataFetch.c   **** * File Name: DataFetch.c
   3:DataFetch.c   **** * Version 1.0
   4:DataFetch.c   **** *
   5:DataFetch.c   **** * Description:
   6:DataFetch.c   **** *  This source file contains the functions to fetch data from the Hex image and 
   7:DataFetch.c   **** *  load in to the arrays used for Programming.
   8:DataFetch.c   **** *
   9:DataFetch.c   **** * Owner:
  10:DataFetch.c   **** *	Tushar Rastogi, Application Engineer (tusr@cypress.com)
  11:DataFetch.c   **** *
  12:DataFetch.c   **** * Related Document:
  13:DataFetch.c   **** *	AN84858 - PSoC 4 Programming using an External Microcontroller (HSSP)
  14:DataFetch.c   **** *
  15:DataFetch.c   **** * Hardware Dependency:
  16:DataFetch.c   **** *   PSoC 5LP Development Kit - CY8CKIT-050
  17:DataFetch.c   **** *
  18:DataFetch.c   **** * Code Tested With:
  19:DataFetch.c   **** *	PSoC Creator 3.2
  20:DataFetch.c   **** *	ARM GCC 4.8.4
  21:DataFetch.c   **** *	CY8CKIT-050
  22:DataFetch.c   **** *
  23:DataFetch.c   **** * Note:
  24:DataFetch.c   **** *  The definitions of the functions used in this file will change based on the
  25:DataFetch.c   **** *  interface used to get Hex file data.
  26:DataFetch.c   **** *******************************************************************************
  27:DataFetch.c   **** * Copyright (2015), Cypress Semiconductor Corporation.
  28:DataFetch.c   **** *******************************************************************************
  29:DataFetch.c   **** * This software is owned by Cypress Semiconductor Corporation (Cypress) and is
  30:DataFetch.c   **** * protected by and subject to worldwide patent protection (United States and
  31:DataFetch.c   **** * foreign), United States copyright laws and international treaty provisions.
ARM GAS  C:\Users\WORKBE~1\AppData\Local\Temp\ccFxyL3g.s 			page 2


  32:DataFetch.c   **** * Cypress hereby grants to licensee a personal, non-exclusive, non-transferable
  33:DataFetch.c   **** * license to copy, use, modify, create derivative works of, and compile the
  34:DataFetch.c   **** * Cypress Source Code and derivative works for the sole purpose of creating
  35:DataFetch.c   **** * custom software in support of licensee product to be used only in conjunction
  36:DataFetch.c   **** * with a Cypress integrated circuit as specified in the applicable agreement.
  37:DataFetch.c   **** * Any reproduction, modification, translation, compilation, or representation of
  38:DataFetch.c   **** * this software except as specified above is prohibited without the express
  39:DataFetch.c   **** * written permission of Cypress.
  40:DataFetch.c   **** *
  41:DataFetch.c   **** * Disclaimer: CYPRESS MAKES NO WARRANTY OF ANY KIND, EXPRESS OR IMPLIED, WITH
  42:DataFetch.c   **** * REGARD TO THIS MATERIAL, INCLUDING, BUT NOT LIMITED TO, THE IMPLIED
  43:DataFetch.c   **** * WARRANTIES OF MERCHANTABILITY AND FITNESS FOR A PARTICULAR PURPOSE.
  44:DataFetch.c   **** * Cypress reserves the right to make changes without further notice to the
  45:DataFetch.c   **** * materials described herein. Cypress does not assume any liability arising out
  46:DataFetch.c   **** * of the application or use of any product or circuit described herein. Cypress
  47:DataFetch.c   **** * does not authorize its products for use as critical components in life-support
  48:DataFetch.c   **** * systems where a malfunction or failure may reasonably be expected to result in
  49:DataFetch.c   **** * significant injury to the user. The inclusion of Cypress' product in a life-
  50:DataFetch.c   **** * support systems application implies that the manufacturer assumes all risk of
  51:DataFetch.c   **** * such use and in doing so indemnifies Cypress against all charges. Use may be
  52:DataFetch.c   **** * limited by and subject to the applicable Cypress software license agreement.
  53:DataFetch.c   **** 
  54:DataFetch.c   **** ******************************************************************************/
  55:DataFetch.c   **** 
  56:DataFetch.c   **** /******************************************************************************
  57:DataFetch.c   **** *   Header file Inclusion
  58:DataFetch.c   **** ******************************************************************************/
  59:DataFetch.c   **** #include "DataFetch.h"
  60:DataFetch.c   **** #include "HexImage.h"
  61:DataFetch.c   **** #include <device.h>
  62:DataFetch.c   **** 
  63:DataFetch.c   **** /******************************************************************************
  64:DataFetch.c   **** *   Global Constant declaration
  65:DataFetch.c   **** ******************************************************************************/
  66:DataFetch.c   **** 
  67:DataFetch.c   **** /***************************** USER ATTENTION REQUIRED ************************
  68:DataFetch.c   **** **************** DEPENDS ON INTERFACE USED TO GET HEX FILE DATA **************/
  69:DataFetch.c   **** /* The below Global constants are from HexImage.h. The data from these array of
  70:DataFetch.c   ****    constants are loaded in to the arrays passed a parameters to function.
  71:DataFetch.c   ****    These should be modified if different interface is used to get hex file data */
  72:DataFetch.c   **** 
  73:DataFetch.c   **** extern unsigned char const deviceSiliconId_HexFile[SILICON_ID_BYTE_LENGTH]; 
  74:DataFetch.c   **** extern unsigned char const checksumData_HexFile[CHECKSUM_BYTE_LENGTH]; 
  75:DataFetch.c   **** 
  76:DataFetch.c   **** /* PSoC 5LP cannot hold 256 KB of target flash data. Logic to truncate 256 rows */
  77:DataFetch.c   **** #if defined (CY_PSOC5)
  78:DataFetch.c   **** 	#if defined (CY8C4xxxL_FAMILY) || defined (CY8C4xx8_BL_FAMILY)
  79:DataFetch.c   **** 		extern unsigned char const flashData_HexFile[NUMBER_OF_FLASH_ROWS_HEX_FILE-NUMBER_OF_FLASH_ROWS_N
  80:DataFetch.c   **** 	#else
  81:DataFetch.c   **** 		extern unsigned char const flashData_HexFile[NUMBER_OF_FLASH_ROWS_HEX_FILE][FLASH_ROW_BYTE_SIZE_H
  82:DataFetch.c   **** 	#endif
  83:DataFetch.c   **** #else
  84:DataFetch.c   **** 	extern unsigned char const flashData_HexFile[NUMBER_OF_FLASH_ROWS_HEX_FILE][FLASH_ROW_BYTE_SIZE_HE
  85:DataFetch.c   **** #endif
  86:DataFetch.c   **** 
  87:DataFetch.c   **** extern unsigned char const flashProtectionData_HexFile[FLASH_PROTECTION_BYTE_SIZE_HEX_FILE];
  88:DataFetch.c   **** extern unsigned char const chipProtectionData_HexFile; 
ARM GAS  C:\Users\WORKBE~1\AppData\Local\Temp\ccFxyL3g.s 			page 3


  89:DataFetch.c   **** 
  90:DataFetch.c   **** /******************************************************************************
  91:DataFetch.c   **** *   Function Definitions
  92:DataFetch.c   **** ******************************************************************************/
  93:DataFetch.c   **** 
  94:DataFetch.c   **** /***************************** USER ATTENTION REQUIRED ************************
  95:DataFetch.c   **** **************** DEPENDS ON INTERFACE USED TO GET HEX FILE DATA ***************
  96:DataFetch.c   **** All the function definitions below should be modified based on the interface 
  97:DataFetch.c   **** used to get Hex file data to be programmed. If a protocol like I2C, UART is 
  98:DataFetch.c   **** used to get the hex file data, change the function definitions accordingly */
  99:DataFetch.c   **** 
 100:DataFetch.c   **** /******************************************************************************
 101:DataFetch.c   **** * Function Name: HEX_ReadSiliconId
 102:DataFetch.c   **** *******************************************************************************
 103:DataFetch.c   **** *
 104:DataFetch.c   **** * Summary:
 105:DataFetch.c   **** *  Loads the Device Silicon ID data in to an array 
 106:DataFetch.c   **** *
 107:DataFetch.c   **** * Parameters:
 108:DataFetch.c   **** *  unsigned long *hexSiliconId - Address of variable which will store the
 109:DataFetch.c   **** *								 Silicon ID fetched
 110:DataFetch.c   **** *
 111:DataFetch.c   **** * Return:
 112:DataFetch.c   **** *  None.
 113:DataFetch.c   **** *
 114:DataFetch.c   **** * Note:
 115:DataFetch.c   **** *  Modify definition based on method of getting programming data
 116:DataFetch.c   **** *
 117:DataFetch.c   **** ******************************************************************************/
 118:DataFetch.c   **** 
 119:DataFetch.c   **** void HEX_ReadSiliconId(unsigned long *hexSiliconId)
 120:DataFetch.c   **** {
  27              		.loc 1 120 0
  28              		.cfi_startproc
  29              		@ args = 0, pretend = 0, frame = 16
  30              		@ frame_needed = 1, uses_anonymous_args = 0
  31              		@ link register save eliminated.
  32 0000 80B4     		push	{r7}
  33              		.cfi_def_cfa_offset 4
  34              		.cfi_offset 7, -4
  35 0002 85B0     		sub	sp, sp, #20
  36              		.cfi_def_cfa_offset 24
  37 0004 00AF     		add	r7, sp, #0
  38              		.cfi_def_cfa_register 7
  39 0006 7860     		str	r0, [r7, #4]
 121:DataFetch.c   ****     unsigned char i;
 122:DataFetch.c   ****     
 123:DataFetch.c   ****     
 124:DataFetch.c   ****     for(i = 0; i < SILICON_ID_BYTE_LENGTH; i++)
  40              		.loc 1 124 0
  41 0008 0023     		movs	r3, #0
  42 000a FB73     		strb	r3, [r7, #15]
  43 000c 0FE0     		b	.L2
  44              	.L3:
 125:DataFetch.c   ****     {
 126:DataFetch.c   ****         *hexSiliconId = *hexSiliconId | ((unsigned long)(deviceSiliconId_HexFile[i]) << (8*i));		
  45              		.loc 1 126 0 discriminator 3
ARM GAS  C:\Users\WORKBE~1\AppData\Local\Temp\ccFxyL3g.s 			page 4


  46 000e 7B68     		ldr	r3, [r7, #4]
  47 0010 1A68     		ldr	r2, [r3]
  48 0012 FB7B     		ldrb	r3, [r7, #15]	@ zero_extendqisi2
  49 0014 0A49     		ldr	r1, .L4
  50 0016 CB5C     		ldrb	r3, [r1, r3]	@ zero_extendqisi2
  51 0018 1946     		mov	r1, r3
  52 001a FB7B     		ldrb	r3, [r7, #15]	@ zero_extendqisi2
  53 001c DB00     		lsls	r3, r3, #3
  54 001e 01FA03F3 		lsl	r3, r1, r3
  55 0022 1A43     		orrs	r2, r2, r3
  56 0024 7B68     		ldr	r3, [r7, #4]
  57 0026 1A60     		str	r2, [r3]
 124:DataFetch.c   ****     {
  58              		.loc 1 124 0 discriminator 3
  59 0028 FB7B     		ldrb	r3, [r7, #15]	@ zero_extendqisi2
  60 002a 0133     		adds	r3, r3, #1
  61 002c FB73     		strb	r3, [r7, #15]
  62              	.L2:
 124:DataFetch.c   ****     {
  63              		.loc 1 124 0 is_stmt 0 discriminator 1
  64 002e FB7B     		ldrb	r3, [r7, #15]	@ zero_extendqisi2
  65 0030 032B     		cmp	r3, #3
  66 0032 ECD9     		bls	.L3
 127:DataFetch.c   ****     }
 128:DataFetch.c   **** }
  67              		.loc 1 128 0 is_stmt 1
  68 0034 1437     		adds	r7, r7, #20
  69              		.cfi_def_cfa_offset 4
  70 0036 BD46     		mov	sp, r7
  71              		.cfi_def_cfa_register 13
  72              		@ sp needed
  73 0038 5DF8047B 		ldr	r7, [sp], #4
  74              		.cfi_restore 7
  75              		.cfi_def_cfa_offset 0
  76 003c 7047     		bx	lr
  77              	.L5:
  78 003e 00BF     		.align	2
  79              	.L4:
  80 0040 00000000 		.word	deviceSiliconId_HexFile
  81              		.cfi_endproc
  82              	.LFE63:
  83              		.size	HEX_ReadSiliconId, .-HEX_ReadSiliconId
  84              		.section	.text.HEX_ReadRowData,"ax",%progbits
  85              		.align	2
  86              		.global	HEX_ReadRowData
  87              		.thumb
  88              		.thumb_func
  89              		.type	HEX_ReadRowData, %function
  90              	HEX_ReadRowData:
  91              	.LFB64:
 129:DataFetch.c   **** 
 130:DataFetch.c   **** 
 131:DataFetch.c   **** /******************************************************************************
 132:DataFetch.c   **** * Function Name: HEX_ReadRowData
 133:DataFetch.c   **** *******************************************************************************
 134:DataFetch.c   **** *
 135:DataFetch.c   **** * Summary:
ARM GAS  C:\Users\WORKBE~1\AppData\Local\Temp\ccFxyL3g.s 			page 5


 136:DataFetch.c   **** *  Loads the row data from hex file in to an array 
 137:DataFetch.c   **** *
 138:DataFetch.c   **** * Parameters:
 139:DataFetch.c   **** *  unsigned short rowCount      - Flash row count for which the data has to be
 140:DataFetch.c   **** *								  fetched 
 141:DataFetch.c   **** *  unsigned char * rowData      - Base address of array which will store the
 142:DataFetch.c   **** *								  Flash row data fetched
 143:DataFetch.c   **** *
 144:DataFetch.c   **** * Return:
 145:DataFetch.c   **** *  None.
 146:DataFetch.c   **** *
 147:DataFetch.c   **** * Note:
 148:DataFetch.c   **** *  Modify definition based on the method of getting programming data
 149:DataFetch.c   **** *  
 150:DataFetch.c   **** *  REMOVE THIS LOGIC WHILE PORTING THE HSSP CODE TO OTHER HOST PROGRAMMER
 151:DataFetch.c   **** *
 152:DataFetch.c   **** ******************************************************************************/
 153:DataFetch.c   **** void HEX_ReadRowData(unsigned short rowCount, unsigned char * rowData)
 154:DataFetch.c   **** {
  92              		.loc 1 154 0
  93              		.cfi_startproc
  94              		@ args = 0, pretend = 0, frame = 16
  95              		@ frame_needed = 1, uses_anonymous_args = 0
  96              		@ link register save eliminated.
  97 0000 80B4     		push	{r7}
  98              		.cfi_def_cfa_offset 4
  99              		.cfi_offset 7, -4
 100 0002 85B0     		sub	sp, sp, #20
 101              		.cfi_def_cfa_offset 24
 102 0004 00AF     		add	r7, sp, #0
 103              		.cfi_def_cfa_register 7
 104 0006 0346     		mov	r3, r0
 105 0008 3960     		str	r1, [r7]
 106 000a FB80     		strh	r3, [r7, #6]	@ movhi
 155:DataFetch.c   ****     unsigned short i; /* Maximum value of 'i' can be 256 */
 156:DataFetch.c   ****     unsigned short j=0;
 107              		.loc 1 156 0
 108 000c 0023     		movs	r3, #0
 109 000e BB81     		strh	r3, [r7, #12]	@ movhi
 157:DataFetch.c   **** 	#if defined (CY_PSOC5)
 158:DataFetch.c   **** 		/* PSoC 5LP cannot hold 256 KB of target flash data. Logic to truncate 256 rows */
 159:DataFetch.c   **** 		#if defined (CY8C4xxxL_FAMILY) || defined (CY8C4xx8_BL_FAMILY)
 160:DataFetch.c   **** 			if(rowCount < (NUMBER_OF_FLASH_ROWS_HEX_FILE - NUMBER_OF_FLASH_ROWS_NOT_INCLUDED))
 110              		.loc 1 160 0
 111 0010 FB88     		ldrh	r3, [r7, #6]
 112 0012 B3F5357F 		cmp	r3, #724
 113 0016 14D8     		bhi	.L7
 161:DataFetch.c   **** 			{
 162:DataFetch.c   **** 			    for(i = 0; i < FLASH_ROW_BYTE_SIZE_HEX_FILE; i++)
 114              		.loc 1 162 0
 115 0018 0023     		movs	r3, #0
 116 001a FB81     		strh	r3, [r7, #14]	@ movhi
 117 001c 0DE0     		b	.L8
 118              	.L9:
 163:DataFetch.c   **** 			    {
 164:DataFetch.c   **** 			        rowData[i] = flashData_HexFile[rowCount][i];
 119              		.loc 1 164 0 discriminator 3
ARM GAS  C:\Users\WORKBE~1\AppData\Local\Temp\ccFxyL3g.s 			page 6


 120 001e FB89     		ldrh	r3, [r7, #14]
 121 0020 3A68     		ldr	r2, [r7]
 122 0022 1344     		add	r3, r3, r2
 123 0024 F988     		ldrh	r1, [r7, #6]
 124 0026 FA89     		ldrh	r2, [r7, #14]
 125 0028 1D48     		ldr	r0, .L16
 126 002a 0902     		lsls	r1, r1, #8
 127 002c 0A44     		add	r2, r2, r1
 128 002e 0244     		add	r2, r2, r0
 129 0030 1278     		ldrb	r2, [r2]	@ zero_extendqisi2
 130 0032 1A70     		strb	r2, [r3]
 162:DataFetch.c   **** 			    {
 131              		.loc 1 162 0 discriminator 3
 132 0034 FB89     		ldrh	r3, [r7, #14]
 133 0036 0133     		adds	r3, r3, #1
 134 0038 FB81     		strh	r3, [r7, #14]	@ movhi
 135              	.L8:
 162:DataFetch.c   **** 			    {
 136              		.loc 1 162 0 is_stmt 0 discriminator 1
 137 003a FB89     		ldrh	r3, [r7, #14]
 138 003c FF2B     		cmp	r3, #255
 139 003e EED9     		bls	.L9
 140 0040 28E0     		b	.L6
 141              	.L7:
 165:DataFetch.c   **** 			    }
 166:DataFetch.c   **** 			}
 167:DataFetch.c   **** 			else
 168:DataFetch.c   **** 			{
 169:DataFetch.c   ****                 if(rowCount >= (NUMBER_OF_FLASH_ROWS_HEX_FILE-8))
 142              		.loc 1 169 0 is_stmt 1
 143 0042 FB88     		ldrh	r3, [r7, #6]
 144 0044 B3F57E7F 		cmp	r3, #1016
 145 0048 16D3     		bcc	.L11
 170:DataFetch.c   ****                 {                   
 171:DataFetch.c   ****                     for(i = 0; i < FLASH_ROW_BYTE_SIZE_HEX_FILE; i++)
 146              		.loc 1 171 0
 147 004a 0023     		movs	r3, #0
 148 004c FB81     		strh	r3, [r7, #14]	@ movhi
 149 004e 0FE0     		b	.L12
 150              	.L13:
 172:DataFetch.c   ****     			    {
 173:DataFetch.c   ****     			        rowData[i] = flashData_HexFile_RAM[rowCount - (NUMBER_OF_FLASH_ROWS_HEX_FILE-8)][i];
 151              		.loc 1 173 0 discriminator 3
 152 0050 FB89     		ldrh	r3, [r7, #14]
 153 0052 3A68     		ldr	r2, [r7]
 154 0054 1344     		add	r3, r3, r2
 155 0056 FA88     		ldrh	r2, [r7, #6]
 156 0058 A2F57E71 		sub	r1, r2, #1016
 157 005c FA89     		ldrh	r2, [r7, #14]
 158 005e 1148     		ldr	r0, .L16+4
 159 0060 0902     		lsls	r1, r1, #8
 160 0062 0A44     		add	r2, r2, r1
 161 0064 0244     		add	r2, r2, r0
 162 0066 1278     		ldrb	r2, [r2]	@ zero_extendqisi2
 163 0068 1A70     		strb	r2, [r3]
 171:DataFetch.c   ****     			    {
 164              		.loc 1 171 0 discriminator 3
ARM GAS  C:\Users\WORKBE~1\AppData\Local\Temp\ccFxyL3g.s 			page 7


 165 006a FB89     		ldrh	r3, [r7, #14]
 166 006c 0133     		adds	r3, r3, #1
 167 006e FB81     		strh	r3, [r7, #14]	@ movhi
 168              	.L12:
 171:DataFetch.c   ****     			    {
 169              		.loc 1 171 0 is_stmt 0 discriminator 1
 170 0070 FB89     		ldrh	r3, [r7, #14]
 171 0072 FF2B     		cmp	r3, #255
 172 0074 ECD9     		bls	.L13
 173 0076 0DE0     		b	.L6
 174              	.L11:
 174:DataFetch.c   ****                     }
 175:DataFetch.c   ****                 }
 176:DataFetch.c   ****                 else
 177:DataFetch.c   ****                 {
 178:DataFetch.c   ****                     for(i = 0; i < FLASH_ROW_BYTE_SIZE_HEX_FILE; i++)
 175              		.loc 1 178 0 is_stmt 1
 176 0078 0023     		movs	r3, #0
 177 007a FB81     		strh	r3, [r7, #14]	@ movhi
 178 007c 07E0     		b	.L14
 179              	.L15:
 179:DataFetch.c   ****     			    {
 180:DataFetch.c   ****     			        rowData[i]=0;
 180              		.loc 1 180 0 discriminator 3
 181 007e FB89     		ldrh	r3, [r7, #14]
 182 0080 3A68     		ldr	r2, [r7]
 183 0082 1344     		add	r3, r3, r2
 184 0084 0022     		movs	r2, #0
 185 0086 1A70     		strb	r2, [r3]
 178:DataFetch.c   ****     			    {
 186              		.loc 1 178 0 discriminator 3
 187 0088 FB89     		ldrh	r3, [r7, #14]
 188 008a 0133     		adds	r3, r3, #1
 189 008c FB81     		strh	r3, [r7, #14]	@ movhi
 190              	.L14:
 178:DataFetch.c   ****     			    {
 191              		.loc 1 178 0 is_stmt 0 discriminator 1
 192 008e FB89     		ldrh	r3, [r7, #14]
 193 0090 FF2B     		cmp	r3, #255
 194 0092 F4D9     		bls	.L15
 195              	.L6:
 181:DataFetch.c   ****                     }
 182:DataFetch.c   ****                 } 
 183:DataFetch.c   **** 	        }
 184:DataFetch.c   **** 
 185:DataFetch.c   ****         #else
 186:DataFetch.c   **** 			if(rowCount < (NUMBER_OF_FLASH_ROWS_HEX_FILE))
 187:DataFetch.c   **** 			{
 188:DataFetch.c   **** 			    for(i = 0; i < FLASH_ROW_BYTE_SIZE_HEX_FILE; i++)
 189:DataFetch.c   **** 			    {
 190:DataFetch.c   **** 			        rowData[i] = flashData_HexFile[rowCount][i];
 191:DataFetch.c   **** 			    }
 192:DataFetch.c   **** 			}
 193:DataFetch.c   **** 		#endif
 194:DataFetch.c   **** 	#else
 195:DataFetch.c   **** 		if(rowCount < (NUMBER_OF_FLASH_ROWS_HEX_FILE))
 196:DataFetch.c   **** 			{
ARM GAS  C:\Users\WORKBE~1\AppData\Local\Temp\ccFxyL3g.s 			page 8


 197:DataFetch.c   **** 			    for(i = 0; i < FLASH_ROW_BYTE_SIZE_HEX_FILE; i++)
 198:DataFetch.c   **** 			    {
 199:DataFetch.c   **** 			        rowData[i] = flashData_HexFile[rowCount][i];
 200:DataFetch.c   **** 			    }
 201:DataFetch.c   **** 			}
 202:DataFetch.c   **** 	#endif		
 203:DataFetch.c   **** }
 196              		.loc 1 203 0 is_stmt 1
 197 0094 1437     		adds	r7, r7, #20
 198              		.cfi_def_cfa_offset 4
 199 0096 BD46     		mov	sp, r7
 200              		.cfi_def_cfa_register 13
 201              		@ sp needed
 202 0098 5DF8047B 		ldr	r7, [sp], #4
 203              		.cfi_restore 7
 204              		.cfi_def_cfa_offset 0
 205 009c 7047     		bx	lr
 206              	.L17:
 207 009e 00BF     		.align	2
 208              	.L16:
 209 00a0 00000000 		.word	flashData_HexFile
 210 00a4 00000000 		.word	flashData_HexFile_RAM
 211              		.cfi_endproc
 212              	.LFE64:
 213              		.size	HEX_ReadRowData, .-HEX_ReadRowData
 214              		.section	.text.HEX_ReadChipProtectionData,"ax",%progbits
 215              		.align	2
 216              		.global	HEX_ReadChipProtectionData
 217              		.thumb
 218              		.thumb_func
 219              		.type	HEX_ReadChipProtectionData, %function
 220              	HEX_ReadChipProtectionData:
 221              	.LFB65:
 204:DataFetch.c   **** 
 205:DataFetch.c   **** /******************************************************************************
 206:DataFetch.c   **** * Function Name: HEX_ReadChipProtectionData
 207:DataFetch.c   **** *******************************************************************************
 208:DataFetch.c   **** *
 209:DataFetch.c   **** * Summary:
 210:DataFetch.c   **** *  Loads the Chip Protection data in to an array 
 211:DataFetch.c   **** *
 212:DataFetch.c   **** * Parameters:
 213:DataFetch.c   **** *
 214:DataFetch.c   **** *  unsigned char * chipProtectionData - Address of variable which will store
 215:DataFetch.c   **** *										the Chip Protection data fetched
 216:DataFetch.c   **** *
 217:DataFetch.c   **** * Return:
 218:DataFetch.c   **** *  None.
 219:DataFetch.c   **** *
 220:DataFetch.c   **** * Note:
 221:DataFetch.c   **** *  Modify definition based on the method of getting programming data
 222:DataFetch.c   **** *
 223:DataFetch.c   **** ******************************************************************************/
 224:DataFetch.c   **** void HEX_ReadChipProtectionData(unsigned char * chipProtectionData)
 225:DataFetch.c   **** {
 222              		.loc 1 225 0
 223              		.cfi_startproc
ARM GAS  C:\Users\WORKBE~1\AppData\Local\Temp\ccFxyL3g.s 			page 9


 224              		@ args = 0, pretend = 0, frame = 8
 225              		@ frame_needed = 1, uses_anonymous_args = 0
 226              		@ link register save eliminated.
 227 0000 80B4     		push	{r7}
 228              		.cfi_def_cfa_offset 4
 229              		.cfi_offset 7, -4
 230 0002 83B0     		sub	sp, sp, #12
 231              		.cfi_def_cfa_offset 16
 232 0004 00AF     		add	r7, sp, #0
 233              		.cfi_def_cfa_register 7
 234 0006 7860     		str	r0, [r7, #4]
 226:DataFetch.c   ****     *chipProtectionData = chipProtectionData_HexFile;
 235              		.loc 1 226 0
 236 0008 044B     		ldr	r3, .L19
 237 000a 1A78     		ldrb	r2, [r3]	@ zero_extendqisi2
 238 000c 7B68     		ldr	r3, [r7, #4]
 239 000e 1A70     		strb	r2, [r3]
 227:DataFetch.c   **** }
 240              		.loc 1 227 0
 241 0010 0C37     		adds	r7, r7, #12
 242              		.cfi_def_cfa_offset 4
 243 0012 BD46     		mov	sp, r7
 244              		.cfi_def_cfa_register 13
 245              		@ sp needed
 246 0014 5DF8047B 		ldr	r7, [sp], #4
 247              		.cfi_restore 7
 248              		.cfi_def_cfa_offset 0
 249 0018 7047     		bx	lr
 250              	.L20:
 251 001a 00BF     		.align	2
 252              	.L19:
 253 001c 00000000 		.word	chipProtectionData_HexFile
 254              		.cfi_endproc
 255              	.LFE65:
 256              		.size	HEX_ReadChipProtectionData, .-HEX_ReadChipProtectionData
 257              		.section	.text.HEX_ReadRowProtectionData,"ax",%progbits
 258              		.align	2
 259              		.global	HEX_ReadRowProtectionData
 260              		.thumb
 261              		.thumb_func
 262              		.type	HEX_ReadRowProtectionData, %function
 263              	HEX_ReadRowProtectionData:
 264              	.LFB66:
 228:DataFetch.c   **** 
 229:DataFetch.c   **** 
 230:DataFetch.c   **** /******************************************************************************
 231:DataFetch.c   **** * Function Name: HEX_ReadRowProtectionData
 232:DataFetch.c   **** *******************************************************************************
 233:DataFetch.c   **** *
 234:DataFetch.c   **** * Summary:
 235:DataFetch.c   **** *  Loads the Flash Row Protection data in to an array 
 236:DataFetch.c   **** *
 237:DataFetch.c   **** * Parameters:
 238:DataFetch.c   **** *
 239:DataFetch.c   **** *  unsigned char * rowProtectionData  - Base address of array which will store
 240:DataFetch.c   **** *									    the Flash Row Protection data fetched
 241:DataFetch.c   **** *  unsigned char rowProtectionByteSize - Size of flash row protection settings
ARM GAS  C:\Users\WORKBE~1\AppData\Local\Temp\ccFxyL3g.s 			page 10


 242:DataFetch.c   **** *										 in bytes
 243:DataFetch.c   **** *
 244:DataFetch.c   **** * Return:
 245:DataFetch.c   **** *  None.
 246:DataFetch.c   **** *
 247:DataFetch.c   **** * Note:
 248:DataFetch.c   **** *  Modify definition based on the method of getting programming data
 249:DataFetch.c   **** *
 250:DataFetch.c   **** ******************************************************************************/
 251:DataFetch.c   **** void HEX_ReadRowProtectionData(unsigned char rowProtectionByteSize, unsigned char * rowProtectionDa
 252:DataFetch.c   **** {
 265              		.loc 1 252 0
 266              		.cfi_startproc
 267              		@ args = 0, pretend = 0, frame = 16
 268              		@ frame_needed = 1, uses_anonymous_args = 0
 269              		@ link register save eliminated.
 270 0000 80B4     		push	{r7}
 271              		.cfi_def_cfa_offset 4
 272              		.cfi_offset 7, -4
 273 0002 85B0     		sub	sp, sp, #20
 274              		.cfi_def_cfa_offset 24
 275 0004 00AF     		add	r7, sp, #0
 276              		.cfi_def_cfa_register 7
 277 0006 0346     		mov	r3, r0
 278 0008 3960     		str	r1, [r7]
 279 000a FB71     		strb	r3, [r7, #7]
 280 000c 1346     		mov	r3, r2
 281 000e BB71     		strb	r3, [r7, #6]
 253:DataFetch.c   ****     unsigned short i;
 254:DataFetch.c   ****     
 255:DataFetch.c   ****     for(i = 0; i < rowProtectionByteSize; i++)
 282              		.loc 1 255 0
 283 0010 0023     		movs	r3, #0
 284 0012 FB81     		strh	r3, [r7, #14]	@ movhi
 285 0014 0EE0     		b	.L22
 286              	.L23:
 256:DataFetch.c   ****     {
 257:DataFetch.c   ****         rowProtectionData[i] = flashProtectionData_HexFile[i + (arrayID * rowProtectionByteSize)];
 287              		.loc 1 257 0 discriminator 3
 288 0016 FB89     		ldrh	r3, [r7, #14]
 289 0018 3A68     		ldr	r2, [r7]
 290 001a 1344     		add	r3, r3, r2
 291 001c F989     		ldrh	r1, [r7, #14]
 292 001e BA79     		ldrb	r2, [r7, #6]	@ zero_extendqisi2
 293 0020 F879     		ldrb	r0, [r7, #7]	@ zero_extendqisi2
 294 0022 00FB02F2 		mul	r2, r0, r2
 295 0026 0A44     		add	r2, r2, r1
 296 0028 0749     		ldr	r1, .L24
 297 002a 8A5C     		ldrb	r2, [r1, r2]	@ zero_extendqisi2
 298 002c 1A70     		strb	r2, [r3]
 255:DataFetch.c   ****     {
 299              		.loc 1 255 0 discriminator 3
 300 002e FB89     		ldrh	r3, [r7, #14]
 301 0030 0133     		adds	r3, r3, #1
 302 0032 FB81     		strh	r3, [r7, #14]	@ movhi
 303              	.L22:
 255:DataFetch.c   ****     {
ARM GAS  C:\Users\WORKBE~1\AppData\Local\Temp\ccFxyL3g.s 			page 11


 304              		.loc 1 255 0 is_stmt 0 discriminator 1
 305 0034 FB79     		ldrb	r3, [r7, #7]	@ zero_extendqisi2
 306 0036 9BB2     		uxth	r3, r3
 307 0038 FA89     		ldrh	r2, [r7, #14]
 308 003a 9A42     		cmp	r2, r3
 309 003c EBD3     		bcc	.L23
 258:DataFetch.c   ****     }    
 259:DataFetch.c   **** }
 310              		.loc 1 259 0 is_stmt 1
 311 003e 1437     		adds	r7, r7, #20
 312              		.cfi_def_cfa_offset 4
 313 0040 BD46     		mov	sp, r7
 314              		.cfi_def_cfa_register 13
 315              		@ sp needed
 316 0042 5DF8047B 		ldr	r7, [sp], #4
 317              		.cfi_restore 7
 318              		.cfi_def_cfa_offset 0
 319 0046 7047     		bx	lr
 320              	.L25:
 321              		.align	2
 322              	.L24:
 323 0048 00000000 		.word	flashProtectionData_HexFile
 324              		.cfi_endproc
 325              	.LFE66:
 326              		.size	HEX_ReadRowProtectionData, .-HEX_ReadRowProtectionData
 327              		.section	.text.HEX_ReadChecksumData,"ax",%progbits
 328              		.align	2
 329              		.global	HEX_ReadChecksumData
 330              		.thumb
 331              		.thumb_func
 332              		.type	HEX_ReadChecksumData, %function
 333              	HEX_ReadChecksumData:
 334              	.LFB67:
 260:DataFetch.c   **** 
 261:DataFetch.c   **** /******************************************************************************
 262:DataFetch.c   **** * Function Name: HEX_ReadChecksumData
 263:DataFetch.c   **** *******************************************************************************
 264:DataFetch.c   **** *
 265:DataFetch.c   **** * Summary:
 266:DataFetch.c   **** *  Loads the Checksum data in to an array 
 267:DataFetch.c   **** *
 268:DataFetch.c   **** * Parameters:
 269:DataFetch.c   **** *  unsigned short * checksumData - Base address of the array which will store
 270:DataFetch.c   **** *								   the Checksum data fetched
 271:DataFetch.c   **** *
 272:DataFetch.c   **** * Return:
 273:DataFetch.c   **** *  None.
 274:DataFetch.c   **** *
 275:DataFetch.c   **** * Note:
 276:DataFetch.c   **** *  Modify definition based on the method of getting programming data
 277:DataFetch.c   **** *
 278:DataFetch.c   **** ******************************************************************************/
 279:DataFetch.c   **** void HEX_ReadChecksumData(unsigned short * checksumData)
 280:DataFetch.c   **** {
 335              		.loc 1 280 0
 336              		.cfi_startproc
 337              		@ args = 0, pretend = 0, frame = 16
ARM GAS  C:\Users\WORKBE~1\AppData\Local\Temp\ccFxyL3g.s 			page 12


 338              		@ frame_needed = 1, uses_anonymous_args = 0
 339              		@ link register save eliminated.
 340 0000 80B4     		push	{r7}
 341              		.cfi_def_cfa_offset 4
 342              		.cfi_offset 7, -4
 343 0002 85B0     		sub	sp, sp, #20
 344              		.cfi_def_cfa_offset 24
 345 0004 00AF     		add	r7, sp, #0
 346              		.cfi_def_cfa_register 7
 347 0006 7860     		str	r0, [r7, #4]
 281:DataFetch.c   ****     unsigned char i;
 282:DataFetch.c   **** 
 283:DataFetch.c   ****     for(i = 0; i < CHECKSUM_BYTE_LENGTH; i++)
 348              		.loc 1 283 0
 349 0008 0023     		movs	r3, #0
 350 000a FB73     		strb	r3, [r7, #15]
 351 000c 14E0     		b	.L27
 352              	.L28:
 284:DataFetch.c   ****     {
 285:DataFetch.c   ****         *checksumData |= (checksumData_HexFile[i] << (8*i));
 353              		.loc 1 285 0 discriminator 3
 354 000e 7B68     		ldr	r3, [r7, #4]
 355 0010 1B88     		ldrh	r3, [r3]
 356 0012 99B2     		uxth	r1, r3
 357 0014 FB7B     		ldrb	r3, [r7, #15]	@ zero_extendqisi2
 358 0016 0C4A     		ldr	r2, .L29
 359 0018 D35C     		ldrb	r3, [r2, r3]	@ zero_extendqisi2
 360 001a 1A46     		mov	r2, r3
 361 001c FB7B     		ldrb	r3, [r7, #15]	@ zero_extendqisi2
 362 001e DB00     		lsls	r3, r3, #3
 363 0020 02FA03F3 		lsl	r3, r2, r3
 364 0024 9BB2     		uxth	r3, r3
 365 0026 0A46     		mov	r2, r1	@ movhi
 366 0028 1343     		orrs	r3, r3, r2
 367 002a 9BB2     		uxth	r3, r3
 368 002c 9AB2     		uxth	r2, r3
 369 002e 7B68     		ldr	r3, [r7, #4]
 370 0030 1A80     		strh	r2, [r3]	@ movhi
 283:DataFetch.c   ****     {
 371              		.loc 1 283 0 discriminator 3
 372 0032 FB7B     		ldrb	r3, [r7, #15]	@ zero_extendqisi2
 373 0034 0133     		adds	r3, r3, #1
 374 0036 FB73     		strb	r3, [r7, #15]
 375              	.L27:
 283:DataFetch.c   ****     {
 376              		.loc 1 283 0 is_stmt 0 discriminator 1
 377 0038 FB7B     		ldrb	r3, [r7, #15]	@ zero_extendqisi2
 378 003a 012B     		cmp	r3, #1
 379 003c E7D9     		bls	.L28
 286:DataFetch.c   ****     }
 287:DataFetch.c   **** }
 380              		.loc 1 287 0 is_stmt 1
 381 003e 1437     		adds	r7, r7, #20
 382              		.cfi_def_cfa_offset 4
 383 0040 BD46     		mov	sp, r7
 384              		.cfi_def_cfa_register 13
 385              		@ sp needed
ARM GAS  C:\Users\WORKBE~1\AppData\Local\Temp\ccFxyL3g.s 			page 13


 386 0042 5DF8047B 		ldr	r7, [sp], #4
 387              		.cfi_restore 7
 388              		.cfi_def_cfa_offset 0
 389 0046 7047     		bx	lr
 390              	.L30:
 391              		.align	2
 392              	.L29:
 393 0048 00000000 		.word	checksumData_HexFile
 394              		.cfi_endproc
 395              	.LFE67:
 396              		.size	HEX_ReadChecksumData, .-HEX_ReadChecksumData
 397              		.section	.text.GetFlashRowCount,"ax",%progbits
 398              		.align	2
 399              		.global	GetFlashRowCount
 400              		.thumb
 401              		.thumb_func
 402              		.type	GetFlashRowCount, %function
 403              	GetFlashRowCount:
 404              	.LFB68:
 288:DataFetch.c   **** 
 289:DataFetch.c   **** /******************************************************************************
 290:DataFetch.c   **** * Function Name: GetFlashRowCount
 291:DataFetch.c   **** *******************************************************************************
 292:DataFetch.c   **** *
 293:DataFetch.c   **** * Summary:
 294:DataFetch.c   **** *  Returns the total number of Flash rows in the target PSoC 4 device
 295:DataFetch.c   **** *
 296:DataFetch.c   **** * Parameters:
 297:DataFetch.c   **** *  None
 298:DataFetch.c   **** *
 299:DataFetch.c   **** * Return:
 300:DataFetch.c   **** *  unsigned short
 301:DataFetch.c   **** *   Total number of Flash rows in target PSoC 4
 302:DataFetch.c   **** *
 303:DataFetch.c   **** * Note:
 304:DataFetch.c   **** *  The Flash row count is from the HexImage.h file. Modify the definition based
 305:DataFetch.c   **** *  on the method of getting programming data
 306:DataFetch.c   **** *
 307:DataFetch.c   **** ******************************************************************************/
 308:DataFetch.c   **** unsigned short GetFlashRowCount()
 309:DataFetch.c   **** {
 405              		.loc 1 309 0
 406              		.cfi_startproc
 407              		@ args = 0, pretend = 0, frame = 0
 408              		@ frame_needed = 1, uses_anonymous_args = 0
 409              		@ link register save eliminated.
 410 0000 80B4     		push	{r7}
 411              		.cfi_def_cfa_offset 4
 412              		.cfi_offset 7, -4
 413 0002 00AF     		add	r7, sp, #0
 414              		.cfi_def_cfa_register 7
 310:DataFetch.c   ****     return(NUMBER_OF_FLASH_ROWS_HEX_FILE);
 415              		.loc 1 310 0
 416 0004 4FF48063 		mov	r3, #1024
 311:DataFetch.c   **** }
 417              		.loc 1 311 0
 418 0008 1846     		mov	r0, r3
ARM GAS  C:\Users\WORKBE~1\AppData\Local\Temp\ccFxyL3g.s 			page 14


 419 000a BD46     		mov	sp, r7
 420              		.cfi_def_cfa_register 13
 421              		@ sp needed
 422 000c 5DF8047B 		ldr	r7, [sp], #4
 423              		.cfi_restore 7
 424              		.cfi_def_cfa_offset 0
 425 0010 7047     		bx	lr
 426              		.cfi_endproc
 427              	.LFE68:
 428              		.size	GetFlashRowCount, .-GetFlashRowCount
 429 0012 00BF     		.text
 430              	.Letext0:
 431              		.file 2 "c:\\program files\\cypress\\psoc creator\\4.0\\psoc creator\\import\\gnu\\arm\\4.9.3\\arm
 432              		.file 3 "c:\\program files\\cypress\\psoc creator\\4.0\\psoc creator\\import\\gnu\\arm\\4.9.3\\arm
 433              		.file 4 "HexImage.h"
 434              		.file 5 "Generated_Source\\PSoC5/core_cm3.h"