ARM GAS  C:\Users\WORKBE~1\AppData\Local\Temp\ccC3bekF.s 			page 1


   1              		.syntax unified
   2              		.cpu cortex-m3
   3              		.fpu softvfp
   4              		.eabi_attribute 20, 1
   5              		.eabi_attribute 21, 1
   6              		.eabi_attribute 23, 3
   7              		.eabi_attribute 24, 1
   8              		.eabi_attribute 25, 1
   9              		.eabi_attribute 26, 1
  10              		.eabi_attribute 30, 6
  11              		.eabi_attribute 34, 1
  12              		.eabi_attribute 18, 4
  13              		.thumb
  14              		.file	"main.c"
  15              		.text
  16              	.Ltext0:
  17              		.cfi_sections	.debug_frame
  18              		.comm	currentStep,1,1
  19              		.comm	ezi2cBuffer,4,4
  20              		.comm	i2cBufferRead,4,4
  21              		.comm	i2cBufferWrite,5,4
  22              		.global	actionSelect
  23              		.bss
  24              		.type	actionSelect, %object
  25              		.size	actionSelect, 1
  26              	actionSelect:
  27 0000 00       		.space	1
  28              		.section	.text.main,"ax",%progbits
  29              		.align	2
  30              		.global	main
  31              		.thumb
  32              		.thumb_func
  33              		.type	main, %function
  34              	main:
  35              	.LFB63:
  36              		.file 1 "main.c"
   1:main.c        **** /******************************************************************************
   2:main.c        **** 
   3:main.c        **** 
   4:main.c        **** *******************************************************************************
   5:main.c        **** *  Project Name: A_Hssp_Programmer
   6:main.c        **** *  Project Revision: 1.00
   7:main.c        **** *  Software Version: PSoC Creator 3.3
   8:main.c        **** *  Device Tested: CY8C5868AXI-LP035
   9:main.c        **** *  Compilers Tested: ARM GCC 4.9-2015-q1-update
  10:main.c        **** *  Related Hardware: CY8CKIT-050
  11:main.c        **** ******************************************************************************/
  12:main.c        **** 
  13:main.c        **** /******************************************************************************
  14:main.c        **** * Project Description:
  15:main.c        **** * This is a sample HSSP implmentation demonstrating a PSoC 5LP programming
  16:main.c        **** * PSoC 4. The project is tested using CY8CKIT-050 with PSoC 5LP chip and 
  17:main.c        **** * CY8CKIT-001 with PSoC 4 processor module.
  18:main.c        **** *
  19:main.c        **** * Connections Required
  20:main.c        **** * CY8CKIT-050 (PSoC 5LP DVK) :
  21:main.c        **** *  Pin_SWDIO (P0[0])- This pin is connected to SWDIO (Debug pin) of PSoC 4 kit.
ARM GAS  C:\Users\WORKBE~1\AppData\Local\Temp\ccC3bekF.s 			page 2


  22:main.c        **** *  Pin_SWDCK (P0[1])- This pin is connected to SWDCK (Debug pin) of PSoC 4 kit.
  23:main.c        **** *  Pin_XRES  (P0[2])- This pin is connected to XRES input of PSoC kit.
  24:main.c        **** *  Pin_Start (P6[1])- This pin is internally connected to switch SW2.
  25:main.c        **** *
  26:main.c        **** * Note that the GNDs of both DVKs should be connected together and Power should
  27:main.c        **** * be supplied from a single source.
  28:main.c        **** *
  29:main.c        **** * The hex file included in this project toggles pin P1[6] of PSoC 4 at 1Hz
  30:main.c        **** * frequency and displays “PSoC Programmed” on the character LCD mounted on
  31:main.c        **** * CY8CKIT-001 DVK.
  32:main.c        **** * 
  33:main.c        **** * Connections required on the CY8CKIT-001 with PSoC 4 Processor Module :
  34:main.c        **** * 	1. Connect P1[6] to LED1
  35:main.c        **** *	2. Mount character LCD on the kit
  36:main.c        **** *
  37:main.c        **** * Press SW2 on the PSoC 5LP DVK to start the programming operation.
  38:main.c        **** * ProgramDevice() function in main.c calls all the programming steps
  39:main.c        **** * sequentially to program PSoC 4.
  40:main.c        **** *
  41:main.c        **** * main.c checks the result of ProgramDevice() function and if it returns 
  42:main.c        **** * SUCCESS, "HSSP Success" is displayed on the character LCD mounted on the
  43:main.c        **** * PSoC 5LP kit. If ProgramDevice() returns failure, Step of failure, Reason
  44:main.c        **** * of failure is displayed on the LCD. If the error is because of SROM, It
  45:main.c        **** * displays the SROM error code.
  46:main.c        **** *
  47:main.c        **** * On the PSoC 4 Side, LED connected to P1[6] starts to toggle at 1 Hz
  48:main.c        **** * frequency and character LCD displays the message after successful 
  49:main.c        **** * programming.
  50:main.c        **** *
  51:main.c        **** * Note:
  52:main.c        **** *  The Character LCD functions and the Pin_Start APIs in the main() function
  53:main.c        **** *  are for PSoC 5LP host programmer. If you are using any other microcontroller,
  54:main.c        **** *  replace the functions with the APIs supported by the host or change the macro
  55:main.c        **** *  USE_LCD and USE_START_PIN to 0 to remove all LCD and Pin_Start functions.
  56:main.c        **** ******************************************************************************/
  57:main.c        **** 
  58:main.c        **** /* This file is included for calling Character LCD and Pin_Start APIs in
  59:main.c        ****    PSoC 5LP. Remove this header file while porting to non PSoC 5LP host
  60:main.c        ****    programmer */
  61:main.c        **** #include <device.h>
  62:main.c        **** 
  63:main.c        **** #include <project.h>
  64:main.c        **** 
  65:main.c        **** /* These macros are used to remove all LCD and Pin_Start functions while
  66:main.c        ****    porting this code to non PSoC 5LP host programmer */
  67:main.c        **** #define USE_LCD 		0
  68:main.c        **** #define USE_START_PIN 	0
  69:main.c        **** 
  70:main.c        **** /* This file has the top level HSSP routines that should be called from main
  71:main.c        ****    application code */
  72:main.c        **** #include "ProgrammingSteps.h"
  73:main.c        **** 
  74:main.c        **** /* Function which sequentially calls all the programming steps */
  75:main.c        **** unsigned char ProgramDevice(void);
  76:main.c        **** 
  77:main.c        **** /* Global variable which stores the current programming step under execution */
  78:main.c        **** unsigned char currentStep;
ARM GAS  C:\Users\WORKBE~1\AppData\Local\Temp\ccC3bekF.s 			page 3


  79:main.c        **** 
  80:main.c        **** /* Slave address of the EZI2C */
  81:main.c        **** #define EZI2C_SLAVE_ADDR        (0x08u)
  82:main.c        **** #define BUFFER_SIZE             (0x04u)
  83:main.c        **** #define BUFFER_RW_AREA_SIZE     (0x02u)
  84:main.c        **** 
  85:main.c        **** /* Denotes the offset inside the EZI2C buffer */
  86:main.c        **** #define SLAVE_ADDR_SIZE         (0x01u)
  87:main.c        **** 
  88:main.c        **** #define ACTION_SELECT_NONE      (0x00u)     /* Do nothing       */
  89:main.c        **** #define ACTION_SELECT_WRITE     (0x01u)     /* Write to EZI2C   */
  90:main.c        **** #define ACTION_SELECT_READ      (0x02u)     /* Read from EZI2C  */
  91:main.c        **** 
  92:main.c        **** /* Desing interrupt handlers for SW1 and SW2 event */
  93:main.c        **** CY_ISR_PROTO(ISR_WriteSW1_Interrupt);
  94:main.c        **** CY_ISR_PROTO(ISR_ReadSW2_Interrupt);
  95:main.c        **** 
  96:main.c        **** /* EZI2C buffer */
  97:main.c        **** uint8   ezi2cBuffer[BUFFER_SIZE];
  98:main.c        **** 
  99:main.c        **** /* I2C buffer with the data read from EZI2C */
 100:main.c        **** uint8   i2cBufferRead[BUFFER_SIZE];
 101:main.c        **** 
 102:main.c        **** /* I2C buffer with the data to be written to EZI2C */
 103:main.c        **** uint8   i2cBufferWrite[SLAVE_ADDR_SIZE + BUFFER_SIZE];
 104:main.c        **** 
 105:main.c        **** /* Initialize action variable */
 106:main.c        **** volatile uint8 actionSelect = ACTION_SELECT_NONE;
 107:main.c        **** 
 108:main.c        **** int main()
 109:main.c        **** {
  37              		.loc 1 109 0
  38              		.cfi_startproc
  39              		@ args = 0, pretend = 0, frame = 8
  40              		@ frame_needed = 1, uses_anonymous_args = 0
  41 0000 80B5     		push	{r7, lr}
  42              		.cfi_def_cfa_offset 8
  43              		.cfi_offset 7, -8
  44              		.cfi_offset 14, -4
  45 0002 82B0     		sub	sp, sp, #8
  46              		.cfi_def_cfa_offset 16
  47 0004 00AF     		add	r7, sp, #0
  48              		.cfi_def_cfa_register 7
 110:main.c        ****     /* Variable to store the result of HSSP operation */
 111:main.c        ****     unsigned char programResult;   
 112:main.c        **** 	
 113:main.c        **** 	/* Variable to store the HSSP Error status in case of failure */
 114:main.c        ****     unsigned char errorStatus; 
 115:main.c        **** 	
 116:main.c        **** 	/* Variable to store the SROM Error status if errorStatus contains
 117:main.c        **** 	   SROM_TIMEOUT_ERROR error */
 118:main.c        ****     unsigned char sromErrorStatus;
 119:main.c        **** 	
 120:main.c        **** 	/* Set USE_LCD macro to 0 if PSoC 5LP is not used as host microcontroller */
 121:main.c        **** 	if(USE_LCD)
 122:main.c        **** 	{
 123:main.c        **** 		/* Initialize Character LCD  */
ARM GAS  C:\Users\WORKBE~1\AppData\Local\Temp\ccC3bekF.s 			page 4


 124:main.c        **** 	    LCD_Char_Start();
 125:main.c        **** 		
 126:main.c        **** 		/* Display the message */
 127:main.c        **** 		LCD_Char_Position(0,0);
 128:main.c        **** 		LCD_Char_PrintString("Press SWITCH SW2");
 129:main.c        **** 	}
 130:main.c        ****     
 131:main.c        **** 	/* Set USE_START_PIN macro to 0 if PSoC 5LP is not used as host
 132:main.c        **** 	   microcontroller */
 133:main.c        **** 	if(USE_START_PIN)
 134:main.c        **** 	{
 135:main.c        **** 		while (Pin_Start_Read() == 1);
 136:main.c        **** 	}
 137:main.c        **** 	
 138:main.c        **** 	/* Set USE_LCD macro to 0 if PSoC 5LP is not used as host microcontroller */
 139:main.c        **** 	if(USE_LCD)
 140:main.c        **** 	{
 141:main.c        **** 		/* Clear Character LCD  */
 142:main.c        **** 		LCD_Char_ClearDisplay();
 143:main.c        **** 		
 144:main.c        **** 		/* Display the message */
 145:main.c        **** 	    LCD_Char_Position(0,0);
 146:main.c        **** 	    LCD_Char_PrintString("Programming PSoC4");
 147:main.c        **** 	}
 148:main.c        ****        
 149:main.c        ****     /* Start EZI2C */
 150:main.c        ****     EZI2C_Start();
  49              		.loc 1 150 0
  50 0006 FFF7FEFF 		bl	EZI2C_Start
 151:main.c        ****     
 152:main.c        ****     /* Enable global interrupts */
 153:main.c        ****     CyGlobalIntEnable;
  51              		.loc 1 153 0
  52              	@ 153 "main.c" 1
  53 000a 62B6     		CPSIE   i
  54              	@ 0 "" 2
 154:main.c        ****     
 155:main.c        ****     /* Initialize EZI2C buffer's read only data */
 156:main.c        ****     ezi2cBuffer[BUFFER_RW_AREA_SIZE     ] = 0xAAu;
  55              		.loc 1 156 0
  56              		.thumb
  57 000c 0F4B     		ldr	r3, .L3
  58 000e AA22     		movs	r2, #170
  59 0010 9A70     		strb	r2, [r3, #2]
 157:main.c        ****     ezi2cBuffer[BUFFER_RW_AREA_SIZE + 1u] = 0xBBu;
  60              		.loc 1 157 0
  61 0012 0E4B     		ldr	r3, .L3
  62 0014 BB22     		movs	r2, #187
  63 0016 DA70     		strb	r2, [r3, #3]
 158:main.c        **** 
 159:main.c        ****     /***************************************************************************
 160:main.c        ****     * The first parameter sets the size of the exposed memory to the I2C
 161:main.c        ****     * interface. In this case, it is the entire array. The second parameter sets
 162:main.c        ****     * the boundary between the read/write and read only areas by setting the
 163:main.c        ****     * number of bytes in the read/write area. The read/write area is first,
 164:main.c        ****     * followed by the read only area. In this case, only the first
 165:main.c        ****     * BUFFER_RW_AREA_SIZE bytes may be written, but all bytes may be read by the
ARM GAS  C:\Users\WORKBE~1\AppData\Local\Temp\ccC3bekF.s 			page 5


 166:main.c        ****     * I2C master. The third parameter is a pointer to the data.
 167:main.c        ****     ***************************************************************************/
 168:main.c        ****     EZI2C_SetBuffer1(BUFFER_SIZE, BUFFER_RW_AREA_SIZE, (void *) ezi2cBuffer);
  64              		.loc 1 168 0
  65 0018 0420     		movs	r0, #4
  66 001a 0221     		movs	r1, #2
  67 001c 0B4A     		ldr	r2, .L3
  68 001e FFF7FEFF 		bl	EZI2C_SetBuffer1
 169:main.c        **** 
 170:main.c        **** 
 171:main.c        ****     /* Start the HSSP Programming and store the status */
 172:main.c        ****     programResult = ProgramDevice();
  69              		.loc 1 172 0
  70 0022 FFF7FEFF 		bl	ProgramDevice
  71 0026 0346     		mov	r3, r0
  72 0028 FB71     		strb	r3, [r7, #7]
 173:main.c        ****     
 174:main.c        **** 	/* Set USE_LCD macro to 0 if PSoC 5LP is not used as host microcontroller */
 175:main.c        **** 	if(USE_LCD)
 176:main.c        **** 	{
 177:main.c        **** 	    /* Character LCD will display the status of HSSP Programming  */
 178:main.c        **** 	    LCD_Char_ClearDisplay();
 179:main.c        **** 	}
 180:main.c        ****     
 181:main.c        **** 	/* HSSP completed successfully */
 182:main.c        ****     if(programResult == SUCCESS) 
  73              		.loc 1 182 0
  74 002a FB79     		ldrb	r3, [r7, #7]	@ zero_extendqisi2
  75 002c 012B     		cmp	r3, #1
  76 002e 0CD0     		beq	.L2
 183:main.c        ****     {
 184:main.c        **** 		/* Set USE_LCD macro to 0 if PSoC 5LP is not used as host microcontroller */
 185:main.c        ****         if(USE_LCD)
 186:main.c        **** 		{
 187:main.c        **** 			LCD_Char_Position(0,0);
 188:main.c        ****         	LCD_Char_PrintString("HSSP Success");
 189:main.c        ****     	}
 190:main.c        **** 	}
 191:main.c        **** 	
 192:main.c        **** 	/* HSSP Failure */
 193:main.c        ****     else
 194:main.c        ****     {
 195:main.c        **** 		/* Set USE_LCD macro to 0 if PSoC 5LP is not used as host microcontroller */
 196:main.c        ****         if(USE_LCD)
 197:main.c        **** 		{
 198:main.c        **** 			/* Display the step number where the HSSP failed */
 199:main.c        **** 	        LCD_Char_Position(0,0);
 200:main.c        **** 	        LCD_Char_PrintString("HSSP Fail Step");
 201:main.c        **** 	        LCD_Char_PrintInt8(currentStep);
 202:main.c        **** 		}
 203:main.c        ****         		
 204:main.c        ****         /* Get the HSSP error status and display on THE LCD */
 205:main.c        ****         errorStatus = ReadHsspErrorStatus();
  77              		.loc 1 205 0
  78 0030 FFF7FEFF 		bl	ReadHsspErrorStatus
  79 0034 0346     		mov	r3, r0
  80 0036 BB71     		strb	r3, [r7, #6]
ARM GAS  C:\Users\WORKBE~1\AppData\Local\Temp\ccC3bekF.s 			page 6


 206:main.c        ****         
 207:main.c        **** 		/* Set USE_LCD macro to 0 if PSoC 5LP is not used as host microcontroller */
 208:main.c        **** 		if(USE_LCD)
 209:main.c        **** 		{
 210:main.c        **** 	        LCD_Char_Position(1,0);
 211:main.c        **** 	        LCD_Char_PrintString("Err ");
 212:main.c        **** 	        LCD_Char_PrintInt8(errorStatus);
 213:main.c        **** 		}
 214:main.c        ****         
 215:main.c        ****         /* If the errorStatus contains THE SROM_TIMEOUT_ERROR error condition,
 216:main.c        ****            read the Status Code returned by CPUSS_SYSARG register and display
 217:main.c        **** 		   on THE LCD */
 218:main.c        ****         if(errorStatus & SROM_TIMEOUT_ERROR)
  81              		.loc 1 218 0
  82 0038 BB79     		ldrb	r3, [r7, #6]	@ zero_extendqisi2
  83 003a 03F02003 		and	r3, r3, #32
  84 003e 002B     		cmp	r3, #0
  85 0040 03D0     		beq	.L2
 219:main.c        ****         {
 220:main.c        ****             sromErrorStatus = ReadSromStatus();
  86              		.loc 1 220 0
  87 0042 FFF7FEFF 		bl	ReadSromStatus
  88 0046 0346     		mov	r3, r0
  89 0048 7B71     		strb	r3, [r7, #5]
  90              	.L2:
 221:main.c        ****             
 222:main.c        **** 			/* Set USE_LCD macro to 0 if PSoC 5LP is not used as host microcontroller */
 223:main.c        **** 			if(USE_LCD)
 224:main.c        **** 			{
 225:main.c        **** 				LCD_Char_PrintString(" SROM ");
 226:main.c        **** 				LCD_Char_PrintInt8(sromErrorStatus);
 227:main.c        **** 			}
 228:main.c        ****         }
 229:main.c        ****     }
 230:main.c        **** 
 231:main.c        ****     for( ; ; )
 232:main.c        ****     {
 233:main.c        ****         /* Do Nothing */
 234:main.c        ****     }
  91              		.loc 1 234 0 discriminator 2
  92 004a FEE7     		b	.L2
  93              	.L4:
  94              		.align	2
  95              	.L3:
  96 004c 00000000 		.word	ezi2cBuffer
  97              		.cfi_endproc
  98              	.LFE63:
  99              		.size	main, .-main
 100              		.section	.text.ProgramDevice,"ax",%progbits
 101              		.align	2
 102              		.global	ProgramDevice
 103              		.thumb
 104              		.thumb_func
 105              		.type	ProgramDevice, %function
 106              	ProgramDevice:
 107              	.LFB64:
 235:main.c        **** }
ARM GAS  C:\Users\WORKBE~1\AppData\Local\Temp\ccC3bekF.s 			page 7


 236:main.c        **** 
 237:main.c        **** /******************************************************************************
 238:main.c        **** * Function Name: unsigned char ProgramDevice(void)
 239:main.c        **** *******************************************************************************
 240:main.c        **** * Summary:
 241:main.c        **** *  This function sequentially calls all the functions required to program a
 242:main.c        **** *  PSoC 4. These functions are defined in ProgrammingSteps.h.
 243:main.c        **** *
 244:main.c        **** * Parameters:
 245:main.c        **** *  None.
 246:main.c        **** *
 247:main.c        **** * Return:
 248:main.c        **** *  SUCCESS - All the programming steps executed successfully
 249:main.c        **** *  FAILURE - HSSP programming fails in any one of the programming step
 250:main.c        **** *
 251:main.c        **** ******************************************************************************/
 252:main.c        **** unsigned char ProgramDevice()
 253:main.c        **** {
 108              		.loc 1 253 0
 109              		.cfi_startproc
 110              		@ args = 0, pretend = 0, frame = 0
 111              		@ frame_needed = 1, uses_anonymous_args = 0
 112 0000 80B5     		push	{r7, lr}
 113              		.cfi_def_cfa_offset 8
 114              		.cfi_offset 7, -8
 115              		.cfi_offset 14, -4
 116 0002 00AF     		add	r7, sp, #0
 117              		.cfi_def_cfa_register 7
 254:main.c        ****     currentStep = 0;
 118              		.loc 1 254 0
 119 0004 3E4B     		ldr	r3, .L16
 120 0006 0022     		movs	r2, #0
 121 0008 1A70     		strb	r2, [r3]
 255:main.c        ****     
 256:main.c        ****     currentStep++;    
 122              		.loc 1 256 0
 123 000a 3D4B     		ldr	r3, .L16
 124 000c 1B78     		ldrb	r3, [r3]	@ zero_extendqisi2
 125 000e 0133     		adds	r3, r3, #1
 126 0010 DAB2     		uxtb	r2, r3
 127 0012 3B4B     		ldr	r3, .L16
 128 0014 1A70     		strb	r2, [r3]
 257:main.c        ****     if(DeviceAcquire() == FAILURE)     
 129              		.loc 1 257 0
 130 0016 FFF7FEFF 		bl	DeviceAcquire
 131 001a 0346     		mov	r3, r0
 132 001c 002B     		cmp	r3, #0
 133 001e 01D1     		bne	.L6
 258:main.c        ****         return(FAILURE);
 134              		.loc 1 258 0
 135 0020 0023     		movs	r3, #0
 136 0022 6AE0     		b	.L7
 137              	.L6:
 259:main.c        ****     
 260:main.c        ****     currentStep++;
 138              		.loc 1 260 0
 139 0024 364B     		ldr	r3, .L16
ARM GAS  C:\Users\WORKBE~1\AppData\Local\Temp\ccC3bekF.s 			page 8


 140 0026 1B78     		ldrb	r3, [r3]	@ zero_extendqisi2
 141 0028 0133     		adds	r3, r3, #1
 142 002a DAB2     		uxtb	r2, r3
 143 002c 344B     		ldr	r3, .L16
 144 002e 1A70     		strb	r2, [r3]
 261:main.c        ****     if(VerifySiliconId() == FAILURE)    
 145              		.loc 1 261 0
 146 0030 FFF7FEFF 		bl	VerifySiliconId
 147 0034 0346     		mov	r3, r0
 148 0036 002B     		cmp	r3, #0
 149 0038 01D1     		bne	.L8
 262:main.c        ****         return(FAILURE);
 150              		.loc 1 262 0
 151 003a 0023     		movs	r3, #0
 152 003c 5DE0     		b	.L7
 153              	.L8:
 263:main.c        **** 
 264:main.c        ****     currentStep++;
 154              		.loc 1 264 0
 155 003e 304B     		ldr	r3, .L16
 156 0040 1B78     		ldrb	r3, [r3]	@ zero_extendqisi2
 157 0042 0133     		adds	r3, r3, #1
 158 0044 DAB2     		uxtb	r2, r3
 159 0046 2E4B     		ldr	r3, .L16
 160 0048 1A70     		strb	r2, [r3]
 265:main.c        ****     if(EraseAllFlash() == FAILURE)             
 161              		.loc 1 265 0
 162 004a FFF7FEFF 		bl	EraseAllFlash
 163 004e 0346     		mov	r3, r0
 164 0050 002B     		cmp	r3, #0
 165 0052 01D1     		bne	.L9
 266:main.c        ****         return(FAILURE);
 166              		.loc 1 266 0
 167 0054 0023     		movs	r3, #0
 168 0056 50E0     		b	.L7
 169              	.L9:
 267:main.c        **** 
 268:main.c        ****     currentStep++;
 170              		.loc 1 268 0
 171 0058 294B     		ldr	r3, .L16
 172 005a 1B78     		ldrb	r3, [r3]	@ zero_extendqisi2
 173 005c 0133     		adds	r3, r3, #1
 174 005e DAB2     		uxtb	r2, r3
 175 0060 274B     		ldr	r3, .L16
 176 0062 1A70     		strb	r2, [r3]
 269:main.c        ****     if(ChecksumPrivileged() == FAILURE)                    
 177              		.loc 1 269 0
 178 0064 FFF7FEFF 		bl	ChecksumPrivileged
 179 0068 0346     		mov	r3, r0
 180 006a 002B     		cmp	r3, #0
 181 006c 01D1     		bne	.L10
 270:main.c        ****         return(FAILURE);
 182              		.loc 1 270 0
 183 006e 0023     		movs	r3, #0
 184 0070 43E0     		b	.L7
 185              	.L10:
 271:main.c        **** 
ARM GAS  C:\Users\WORKBE~1\AppData\Local\Temp\ccC3bekF.s 			page 9


 272:main.c        ****     currentStep++;
 186              		.loc 1 272 0
 187 0072 234B     		ldr	r3, .L16
 188 0074 1B78     		ldrb	r3, [r3]	@ zero_extendqisi2
 189 0076 0133     		adds	r3, r3, #1
 190 0078 DAB2     		uxtb	r2, r3
 191 007a 214B     		ldr	r3, .L16
 192 007c 1A70     		strb	r2, [r3]
 273:main.c        ****     if(ProgramFlash() == FAILURE)          
 193              		.loc 1 273 0
 194 007e FFF7FEFF 		bl	ProgramFlash
 195 0082 0346     		mov	r3, r0
 196 0084 002B     		cmp	r3, #0
 197 0086 01D1     		bne	.L11
 274:main.c        ****         return(FAILURE);
 198              		.loc 1 274 0
 199 0088 0023     		movs	r3, #0
 200 008a 36E0     		b	.L7
 201              	.L11:
 275:main.c        **** 
 276:main.c        ****     currentStep++;
 202              		.loc 1 276 0
 203 008c 1C4B     		ldr	r3, .L16
 204 008e 1B78     		ldrb	r3, [r3]	@ zero_extendqisi2
 205 0090 0133     		adds	r3, r3, #1
 206 0092 DAB2     		uxtb	r2, r3
 207 0094 1A4B     		ldr	r3, .L16
 208 0096 1A70     		strb	r2, [r3]
 277:main.c        ****     if(VerifyFlash() == FAILURE)       
 209              		.loc 1 277 0
 210 0098 FFF7FEFF 		bl	VerifyFlash
 211 009c 0346     		mov	r3, r0
 212 009e 002B     		cmp	r3, #0
 213 00a0 01D1     		bne	.L12
 278:main.c        ****         return(FAILURE);
 214              		.loc 1 278 0
 215 00a2 0023     		movs	r3, #0
 216 00a4 29E0     		b	.L7
 217              	.L12:
 279:main.c        **** 
 280:main.c        ****     currentStep++;
 218              		.loc 1 280 0
 219 00a6 164B     		ldr	r3, .L16
 220 00a8 1B78     		ldrb	r3, [r3]	@ zero_extendqisi2
 221 00aa 0133     		adds	r3, r3, #1
 222 00ac DAB2     		uxtb	r2, r3
 223 00ae 144B     		ldr	r3, .L16
 224 00b0 1A70     		strb	r2, [r3]
 281:main.c        ****     if(ProgramProtectionSettings() == FAILURE) 
 225              		.loc 1 281 0
 226 00b2 FFF7FEFF 		bl	ProgramProtectionSettings
 227 00b6 0346     		mov	r3, r0
 228 00b8 002B     		cmp	r3, #0
 229 00ba 01D1     		bne	.L13
 282:main.c        ****         return(FAILURE);
 230              		.loc 1 282 0
 231 00bc 0023     		movs	r3, #0
ARM GAS  C:\Users\WORKBE~1\AppData\Local\Temp\ccC3bekF.s 			page 10


 232 00be 1CE0     		b	.L7
 233              	.L13:
 283:main.c        **** 
 284:main.c        ****     currentStep++;
 234              		.loc 1 284 0
 235 00c0 0F4B     		ldr	r3, .L16
 236 00c2 1B78     		ldrb	r3, [r3]	@ zero_extendqisi2
 237 00c4 0133     		adds	r3, r3, #1
 238 00c6 DAB2     		uxtb	r2, r3
 239 00c8 0D4B     		ldr	r3, .L16
 240 00ca 1A70     		strb	r2, [r3]
 285:main.c        ****     if(VerifyProtectionSettings() == FAILURE)
 241              		.loc 1 285 0
 242 00cc FFF7FEFF 		bl	VerifyProtectionSettings
 243 00d0 0346     		mov	r3, r0
 244 00d2 002B     		cmp	r3, #0
 245 00d4 01D1     		bne	.L14
 286:main.c        ****         return(FAILURE);
 246              		.loc 1 286 0
 247 00d6 0023     		movs	r3, #0
 248 00d8 0FE0     		b	.L7
 249              	.L14:
 287:main.c        **** 
 288:main.c        ****     currentStep++;
 250              		.loc 1 288 0
 251 00da 094B     		ldr	r3, .L16
 252 00dc 1B78     		ldrb	r3, [r3]	@ zero_extendqisi2
 253 00de 0133     		adds	r3, r3, #1
 254 00e0 DAB2     		uxtb	r2, r3
 255 00e2 074B     		ldr	r3, .L16
 256 00e4 1A70     		strb	r2, [r3]
 289:main.c        ****     if(VerifyChecksum() == FAILURE) 
 257              		.loc 1 289 0
 258 00e6 FFF7FEFF 		bl	VerifyChecksum
 259 00ea 0346     		mov	r3, r0
 260 00ec 002B     		cmp	r3, #0
 261 00ee 01D1     		bne	.L15
 290:main.c        ****         return(FAILURE);
 262              		.loc 1 290 0
 263 00f0 0023     		movs	r3, #0
 264 00f2 02E0     		b	.L7
 265              	.L15:
 291:main.c        **** 
 292:main.c        ****     ExitProgrammingMode();
 266              		.loc 1 292 0
 267 00f4 FFF7FEFF 		bl	ExitProgrammingMode
 293:main.c        ****     
 294:main.c        **** 	/* All the steps were completed successfully */
 295:main.c        ****     return(SUCCESS);
 268              		.loc 1 295 0
 269 00f8 0123     		movs	r3, #1
 270              	.L7:
 296:main.c        **** }
 271              		.loc 1 296 0
 272 00fa 1846     		mov	r0, r3
 273 00fc 80BD     		pop	{r7, pc}
 274              	.L17:
ARM GAS  C:\Users\WORKBE~1\AppData\Local\Temp\ccC3bekF.s 			page 11


 275 00fe 00BF     		.align	2
 276              	.L16:
 277 0100 00000000 		.word	currentStep
 278              		.cfi_endproc
 279              	.LFE64:
 280              		.size	ProgramDevice, .-ProgramDevice
 281              		.text
 282              	.Letext0:
 283              		.file 2 "c:\\program files\\cypress\\psoc creator\\4.0\\psoc creator\\import\\gnu\\arm\\4.9.3\\arm
 284              		.file 3 "c:\\program files\\cypress\\psoc creator\\4.0\\psoc creator\\import\\gnu\\arm\\4.9.3\\arm
 285              		.file 4 "Generated_Source\\PSoC5/cytypes.h"
 286              		.file 5 "Generated_Source\\PSoC5/core_cm3.h"