ARM GAS  C:\Users\WORKBE~1\AppData\Local\Temp\ccKXlGRV.s 			page 1


   1              		.syntax unified
   2              		.cpu cortex-m3
   3              		.fpu softvfp
   4              		.eabi_attribute 20, 1
   5              		.eabi_attribute 21, 1
   6              		.eabi_attribute 23, 3
   7              		.eabi_attribute 24, 1
   8              		.eabi_attribute 25, 1
   9              		.eabi_attribute 26, 1
  10              		.eabi_attribute 30, 6
  11              		.eabi_attribute 34, 1
  12              		.eabi_attribute 18, 4
  13              		.thumb
  14              		.file	"TimeoutCalc.c"
  15              		.text
  16              	.Ltext0:
  17              		.cfi_sections	.debug_frame
  18              		.section	.text.TestDelayHundredUs,"ax",%progbits
  19              		.align	2
  20              		.global	TestDelayHundredUs
  21              		.thumb
  22              		.thumb_func
  23              		.type	TestDelayHundredUs, %function
  24              	TestDelayHundredUs:
  25              	.LFB0:
  26              		.file 1 "TimeoutCalc.c"
   1:TimeoutCalc.c **** /******************************************************************************
   2:TimeoutCalc.c **** * File Name: TimeoutCalc.c
   3:TimeoutCalc.c **** * Version 1.0
   4:TimeoutCalc.c **** *
   5:TimeoutCalc.c **** * Description:
   6:TimeoutCalc.c **** *  This file provides source code for the functions used to calculate the 
   7:TimeoutCalc.c **** *  timeout parameters used in the HSSP application
   8:TimeoutCalc.c **** *
   9:TimeoutCalc.c **** * Owner:
  10:TimeoutCalc.c **** *	Tushar Rastogi, Application Engineer (tusr@cypress.com)
  11:TimeoutCalc.c **** *
  12:TimeoutCalc.c **** * Related Document:
  13:TimeoutCalc.c **** *	AN84858 - PSoC 4 Programming using an External Microcontroller (HSSP)
  14:TimeoutCalc.c **** *
  15:TimeoutCalc.c **** * Hardware Dependency:
  16:TimeoutCalc.c **** *   PSoC 5LP Development Kit - CY8CKIT-050
  17:TimeoutCalc.c **** *
  18:TimeoutCalc.c **** * Code Tested With:
  19:TimeoutCalc.c **** *	PSoC Creator 3.2
  20:TimeoutCalc.c **** *	ARM GCC 4.8.4
  21:TimeoutCalc.c **** *	CY8CKIT-050
  22:TimeoutCalc.c **** *
  23:TimeoutCalc.c **** * Note:
  24:TimeoutCalc.c **** *  Refer to the header file TimeoutCalc.h for the procedure to calculate the 
  25:TimeoutCalc.c **** *  timeout parameters
  26:TimeoutCalc.c **** *******************************************************************************
  27:TimeoutCalc.c **** * Copyright (2015), Cypress Semiconductor Corporation.
  28:TimeoutCalc.c **** *******************************************************************************
  29:TimeoutCalc.c **** * This software is owned by Cypress Semiconductor Corporation (Cypress) and is
  30:TimeoutCalc.c **** * protected by and subject to worldwide patent protection (United States and
  31:TimeoutCalc.c **** * foreign), United States copyright laws and international treaty provisions.
ARM GAS  C:\Users\WORKBE~1\AppData\Local\Temp\ccKXlGRV.s 			page 2


  32:TimeoutCalc.c **** * Cypress hereby grants to licensee a personal, non-exclusive, non-transferable
  33:TimeoutCalc.c **** * license to copy, use, modify, create derivative works of, and compile the
  34:TimeoutCalc.c **** * Cypress Source Code and derivative works for the sole purpose of creating
  35:TimeoutCalc.c **** * custom software in support of licensee product to be used only in conjunction
  36:TimeoutCalc.c **** * with a Cypress integrated circuit as specified in the applicable agreement.
  37:TimeoutCalc.c **** * Any reproduction, modification, translation, compilation, or representation of
  38:TimeoutCalc.c **** * this software except as specified above is prohibited without the express
  39:TimeoutCalc.c **** * written permission of Cypress.
  40:TimeoutCalc.c **** *
  41:TimeoutCalc.c **** * Disclaimer: CYPRESS MAKES NO WARRANTY OF ANY KIND, EXPRESS OR IMPLIED, WITH
  42:TimeoutCalc.c **** * REGARD TO THIS MATERIAL, INCLUDING, BUT NOT LIMITED TO, THE IMPLIED
  43:TimeoutCalc.c **** * WARRANTIES OF MERCHANTABILITY AND FITNESS FOR A PARTICULAR PURPOSE.
  44:TimeoutCalc.c **** * Cypress reserves the right to make changes without further notice to the
  45:TimeoutCalc.c **** * materials described herein. Cypress does not assume any liability arising out
  46:TimeoutCalc.c **** * of the application or use of any product or circuit described herein. Cypress
  47:TimeoutCalc.c **** * does not authorize its products for use as critical components in life-support
  48:TimeoutCalc.c **** * systems where a malfunction or failure may reasonably be expected to result in
  49:TimeoutCalc.c **** * significant injury to the user. The inclusion of Cypress' product in a life-
  50:TimeoutCalc.c **** * support systems application implies that the manufacturer assumes all risk of
  51:TimeoutCalc.c **** * such use and in doing so indemnifies Cypress against all charges. Use may be
  52:TimeoutCalc.c **** * limited by and subject to the applicable Cypress software license agreement.
  53:TimeoutCalc.c **** ******************************************************************************/
  54:TimeoutCalc.c **** 
  55:TimeoutCalc.c **** 
  56:TimeoutCalc.c **** /******************************************************************************
  57:TimeoutCalc.c **** *   Header file Inclusion
  58:TimeoutCalc.c **** ******************************************************************************/
  59:TimeoutCalc.c **** #include "TimeoutCalc.h"
  60:TimeoutCalc.c **** #include "SWD_PacketLayer.h"
  61:TimeoutCalc.c **** #include "SWD_UpperPacketLayer.h"
  62:TimeoutCalc.c **** 
  63:TimeoutCalc.c **** /******************************************************************************
  64:TimeoutCalc.c **** *   Macro Definitions
  65:TimeoutCalc.c **** ******************************************************************************/
  66:TimeoutCalc.c **** #define CPUSS_SYSREQ	            0x40000004
  67:TimeoutCalc.c **** #define SROM_SYSREQ_BIT	            0x80000000
  68:TimeoutCalc.c **** #define SROM_PRIVILEGED_BIT	        0x10000000
  69:TimeoutCalc.c **** #define DPACC_DP_IDCODE_READ   		0xA5
  70:TimeoutCalc.c **** 
  71:TimeoutCalc.c **** /******************************************************************************
  72:TimeoutCalc.c **** *   Function Definitions
  73:TimeoutCalc.c **** ******************************************************************************/
  74:TimeoutCalc.c **** 
  75:TimeoutCalc.c **** /******************************************************************************
  76:TimeoutCalc.c **** * Function Name: TestDelayHundredUs
  77:TimeoutCalc.c **** *******************************************************************************
  78:TimeoutCalc.c **** *
  79:TimeoutCalc.c **** * Summary:
  80:TimeoutCalc.c **** *  This function is used to calculate the timing parameter XRES_PULSE_100US
  81:TimeoutCalc.c **** *
  82:TimeoutCalc.c **** * Parameters:
  83:TimeoutCalc.c **** *  None
  84:TimeoutCalc.c **** *
  85:TimeoutCalc.c **** * Return:
  86:TimeoutCalc.c **** *  None
  87:TimeoutCalc.c **** *
  88:TimeoutCalc.c **** * Note:
ARM GAS  C:\Users\WORKBE~1\AppData\Local\Temp\ccKXlGRV.s 			page 3


  89:TimeoutCalc.c **** *  Refer to the explanation of the parameter XRES_PULSE_100US in the file
  90:TimeoutCalc.c **** *  TimeoutCalc.h for details on using this function to calculate the parameter
  91:TimeoutCalc.c **** *  XRES_PULSE_100US  
  92:TimeoutCalc.c **** *
  93:TimeoutCalc.c **** ******************************************************************************/
  94:TimeoutCalc.c **** 
  95:TimeoutCalc.c **** void TestDelayHundredUs(void)
  96:TimeoutCalc.c **** {
  27              		.loc 1 96 0
  28              		.cfi_startproc
  29              		@ args = 0, pretend = 0, frame = 8
  30              		@ frame_needed = 1, uses_anonymous_args = 0
  31              		@ link register save eliminated.
  32 0000 80B4     		push	{r7}
  33              		.cfi_def_cfa_offset 4
  34              		.cfi_offset 7, -4
  35 0002 83B0     		sub	sp, sp, #12
  36              		.cfi_def_cfa_offset 16
  37 0004 00AF     		add	r7, sp, #0
  38              		.cfi_def_cfa_register 7
  97:TimeoutCalc.c ****     unsigned short timestamp;
  98:TimeoutCalc.c ****     
  99:TimeoutCalc.c **** 	/* Make the pin low before start of the delay */
 100:TimeoutCalc.c ****     TESTPIN_OUTPUT_LOW;
  39              		.loc 1 100 0
  40 0006 104A     		ldr	r2, .L4
  41 0008 0F4B     		ldr	r3, .L4
  42 000a 1B78     		ldrb	r3, [r3]
  43 000c DBB2     		uxtb	r3, r3
  44 000e 23F02003 		bic	r3, r3, #32
  45 0012 DBB2     		uxtb	r3, r3
  46 0014 1370     		strb	r3, [r2]
 101:TimeoutCalc.c ****     
 102:TimeoutCalc.c ****     /* For loop to introduce the 100 us delay */
 103:TimeoutCalc.c ****     for(timestamp = 0; timestamp < XRES_PULSE_100US; timestamp++)
  47              		.loc 1 103 0
  48 0016 0023     		movs	r3, #0
  49 0018 FB80     		strh	r3, [r7, #6]	@ movhi
  50 001a 02E0     		b	.L2
  51              	.L3:
  52              		.loc 1 103 0 is_stmt 0 discriminator 3
  53 001c FB88     		ldrh	r3, [r7, #6]
  54 001e 0133     		adds	r3, r3, #1
  55 0020 FB80     		strh	r3, [r7, #6]	@ movhi
  56              	.L2:
  57              		.loc 1 103 0 discriminator 1
  58 0022 FB88     		ldrh	r3, [r7, #6]
  59 0024 40F25E22 		movw	r2, #606
  60 0028 9342     		cmp	r3, r2
  61 002a F7D9     		bls	.L3
 104:TimeoutCalc.c ****     {
 105:TimeoutCalc.c **** 		/* Do Nothing */
 106:TimeoutCalc.c ****     }
 107:TimeoutCalc.c ****     
 108:TimeoutCalc.c **** 	/* Make the pin high after end of the delay */
 109:TimeoutCalc.c ****     TESTPIN_OUTPUT_HIGH;
  62              		.loc 1 109 0 is_stmt 1
ARM GAS  C:\Users\WORKBE~1\AppData\Local\Temp\ccKXlGRV.s 			page 4


  63 002c 064A     		ldr	r2, .L4
  64 002e 064B     		ldr	r3, .L4
  65 0030 1B78     		ldrb	r3, [r3]
  66 0032 DBB2     		uxtb	r3, r3
  67 0034 43F02003 		orr	r3, r3, #32
  68 0038 DBB2     		uxtb	r3, r3
  69 003a 1370     		strb	r3, [r2]
 110:TimeoutCalc.c **** }
  70              		.loc 1 110 0
  71 003c 0C37     		adds	r7, r7, #12
  72              		.cfi_def_cfa_offset 4
  73 003e BD46     		mov	sp, r7
  74              		.cfi_def_cfa_register 13
  75              		@ sp needed
  76 0040 5DF8047B 		ldr	r7, [sp], #4
  77              		.cfi_restore 7
  78              		.cfi_def_cfa_offset 0
  79 0044 7047     		bx	lr
  80              	.L5:
  81 0046 00BF     		.align	2
  82              	.L4:
  83 0048 00510040 		.word	1073762560
  84              		.cfi_endproc
  85              	.LFE0:
  86              		.size	TestDelayHundredUs, .-TestDelayHundredUs
  87              		.section	.text.TestSromPollingTimeout,"ax",%progbits
  88              		.align	2
  89              		.global	TestSromPollingTimeout
  90              		.thumb
  91              		.thumb_func
  92              		.type	TestSromPollingTimeout, %function
  93              	TestSromPollingTimeout:
  94              	.LFB1:
 111:TimeoutCalc.c **** 
 112:TimeoutCalc.c **** /******************************************************************************
 113:TimeoutCalc.c **** * Function Name: TestSromPollingTimeout
 114:TimeoutCalc.c **** *******************************************************************************
 115:TimeoutCalc.c **** *
 116:TimeoutCalc.c **** * Summary:
 117:TimeoutCalc.c **** *  This function is used to calculate the timing parameter SROM_POLLING_TIMEOUT
 118:TimeoutCalc.c **** *
 119:TimeoutCalc.c **** * Parameters:
 120:TimeoutCalc.c **** *  None
 121:TimeoutCalc.c **** *
 122:TimeoutCalc.c **** * Return:
 123:TimeoutCalc.c **** *  None
 124:TimeoutCalc.c **** *
 125:TimeoutCalc.c **** * Note:
 126:TimeoutCalc.c **** *  Refer to the explanation of the parameter SROM_POLLING_TIMEOUT in the file
 127:TimeoutCalc.c **** *  TimeoutCalc.h for details on using this function to calculate the parameter
 128:TimeoutCalc.c **** *  SROM_POLLING_TIMEOUT
 129:TimeoutCalc.c **** *
 130:TimeoutCalc.c **** ******************************************************************************/
 131:TimeoutCalc.c **** void TestSromPollingTimeout()
 132:TimeoutCalc.c **** {
  95              		.loc 1 132 0
  96              		.cfi_startproc
ARM GAS  C:\Users\WORKBE~1\AppData\Local\Temp\ccKXlGRV.s 			page 5


  97              		@ args = 0, pretend = 0, frame = 8
  98              		@ frame_needed = 1, uses_anonymous_args = 0
  99 0000 80B5     		push	{r7, lr}
 100              		.cfi_def_cfa_offset 8
 101              		.cfi_offset 7, -8
 102              		.cfi_offset 14, -4
 103 0002 82B0     		sub	sp, sp, #8
 104              		.cfi_def_cfa_offset 16
 105 0004 00AF     		add	r7, sp, #0
 106              		.cfi_def_cfa_register 7
 133:TimeoutCalc.c **** 	unsigned short timestamp = 0;
 107              		.loc 1 133 0
 108 0006 0023     		movs	r3, #0
 109 0008 FB80     		strh	r3, [r7, #6]	@ movhi
 134:TimeoutCalc.c **** 	unsigned long statusCode = 0;
 110              		.loc 1 134 0
 111 000a 0023     		movs	r3, #0
 112 000c 3B60     		str	r3, [r7]
 135:TimeoutCalc.c **** 	
 136:TimeoutCalc.c **** 	/* Make the pin low before sending SWD clock train */
 137:TimeoutCalc.c **** 	TESTPIN_OUTPUT_LOW;
 113              		.loc 1 137 0
 114 000e 124A     		ldr	r2, .L9
 115 0010 114B     		ldr	r3, .L9
 116 0012 1B78     		ldrb	r3, [r3]
 117 0014 DBB2     		uxtb	r3, r3
 118 0016 23F02003 		bic	r3, r3, #32
 119 001a DBB2     		uxtb	r3, r3
 120 001c 1370     		strb	r3, [r2]
 138:TimeoutCalc.c **** 	
 139:TimeoutCalc.c **** 	for(timestamp = 0; timestamp < 10; timestamp++)
 121              		.loc 1 139 0
 122 001e 0023     		movs	r3, #0
 123 0020 FB80     		strh	r3, [r7, #6]	@ movhi
 124 0022 0BE0     		b	.L7
 125              	.L8:
 140:TimeoutCalc.c **** 	{
 141:TimeoutCalc.c **** 		Read_IO (CPUSS_SYSREQ, &statusCode);
 126              		.loc 1 141 0 discriminator 3
 127 0024 3B46     		mov	r3, r7
 128 0026 0D48     		ldr	r0, .L9+4
 129 0028 1946     		mov	r1, r3
 130 002a FFF7FEFF 		bl	Read_IO
 142:TimeoutCalc.c **** 		
 143:TimeoutCalc.c **** 		/*performing SROM_SYSREQ_BIT | SROM_PRIVILEGED_BIT */
 144:TimeoutCalc.c **** 		statusCode &= (SROM_SYSREQ_BIT | SROM_PRIVILEGED_BIT);
 131              		.loc 1 144 0 discriminator 3
 132 002e 3B68     		ldr	r3, [r7]
 133 0030 03F01043 		and	r3, r3, #-1879048192
 134 0034 3B60     		str	r3, [r7]
 139:TimeoutCalc.c **** 	{
 135              		.loc 1 139 0 discriminator 3
 136 0036 FB88     		ldrh	r3, [r7, #6]
 137 0038 0133     		adds	r3, r3, #1
 138 003a FB80     		strh	r3, [r7, #6]	@ movhi
 139              	.L7:
 139:TimeoutCalc.c **** 	{
ARM GAS  C:\Users\WORKBE~1\AppData\Local\Temp\ccKXlGRV.s 			page 6


 140              		.loc 1 139 0 is_stmt 0 discriminator 1
 141 003c FB88     		ldrh	r3, [r7, #6]
 142 003e 092B     		cmp	r3, #9
 143 0040 F0D9     		bls	.L8
 145:TimeoutCalc.c **** 	}
 146:TimeoutCalc.c **** 	
 147:TimeoutCalc.c **** 	/* Make the pin high after sending SWD clock train */
 148:TimeoutCalc.c **** 	TESTPIN_OUTPUT_HIGH;
 144              		.loc 1 148 0 is_stmt 1
 145 0042 054A     		ldr	r2, .L9
 146 0044 044B     		ldr	r3, .L9
 147 0046 1B78     		ldrb	r3, [r3]
 148 0048 DBB2     		uxtb	r3, r3
 149 004a 43F02003 		orr	r3, r3, #32
 150 004e DBB2     		uxtb	r3, r3
 151 0050 1370     		strb	r3, [r2]
 149:TimeoutCalc.c **** }
 152              		.loc 1 149 0
 153 0052 0837     		adds	r7, r7, #8
 154              		.cfi_def_cfa_offset 8
 155 0054 BD46     		mov	sp, r7
 156              		.cfi_def_cfa_register 13
 157              		@ sp needed
 158 0056 80BD     		pop	{r7, pc}
 159              	.L10:
 160              		.align	2
 161              	.L9:
 162 0058 00510040 		.word	1073762560
 163 005c 04000040 		.word	1073741828
 164              		.cfi_endproc
 165              	.LFE1:
 166              		.size	TestSromPollingTimeout, .-TestSromPollingTimeout
 167              		.section	.text.TestModeTimeout,"ax",%progbits
 168              		.align	2
 169              		.global	TestModeTimeout
 170              		.thumb
 171              		.thumb_func
 172              		.type	TestModeTimeout, %function
 173              	TestModeTimeout:
 174              	.LFB2:
 150:TimeoutCalc.c **** 
 151:TimeoutCalc.c **** /******************************************************************************
 152:TimeoutCalc.c **** * Function Name: TestModeTimeout
 153:TimeoutCalc.c **** *******************************************************************************
 154:TimeoutCalc.c **** *
 155:TimeoutCalc.c **** * Summary:
 156:TimeoutCalc.c **** *  This function is used to calculate the timing parameter
 157:TimeoutCalc.c **** *  DEVICE_ACQUIRE_TIMEOUT
 158:TimeoutCalc.c **** *
 159:TimeoutCalc.c **** * Parameters:
 160:TimeoutCalc.c **** *  None
 161:TimeoutCalc.c **** *
 162:TimeoutCalc.c **** * Return:
 163:TimeoutCalc.c **** *  None
 164:TimeoutCalc.c **** *
 165:TimeoutCalc.c **** * Note:
 166:TimeoutCalc.c **** *  Refer to the explanation of the parameter DEVICE_ACQUIRE_TIMEOUT in the file
ARM GAS  C:\Users\WORKBE~1\AppData\Local\Temp\ccKXlGRV.s 			page 7


 167:TimeoutCalc.c **** *  TimeoutCalc.h for details on using this function to calculate the parameter
 168:TimeoutCalc.c **** *  DEVICE_ACQUIRE_TIMEOUT  
 169:TimeoutCalc.c **** *
 170:TimeoutCalc.c **** ******************************************************************************/
 171:TimeoutCalc.c **** void TestModeTimeout()
 172:TimeoutCalc.c **** {
 175              		.loc 1 172 0
 176              		.cfi_startproc
 177              		@ args = 0, pretend = 0, frame = 8
 178              		@ frame_needed = 1, uses_anonymous_args = 0
 179 0000 80B5     		push	{r7, lr}
 180              		.cfi_def_cfa_offset 8
 181              		.cfi_offset 7, -8
 182              		.cfi_offset 14, -4
 183 0002 82B0     		sub	sp, sp, #8
 184              		.cfi_def_cfa_offset 16
 185 0004 00AF     		add	r7, sp, #0
 186              		.cfi_def_cfa_register 7
 173:TimeoutCalc.c **** 	unsigned short timestamp = 0;
 187              		.loc 1 173 0
 188 0006 0023     		movs	r3, #0
 189 0008 FB80     		strh	r3, [r7, #6]	@ movhi
 174:TimeoutCalc.c **** 	unsigned long chip_DAP_Id = 0;
 190              		.loc 1 174 0
 191 000a 0023     		movs	r3, #0
 192 000c 3B60     		str	r3, [r7]
 175:TimeoutCalc.c **** 	
 176:TimeoutCalc.c **** 	/* Make the pin low before sending SWD clock train */
 177:TimeoutCalc.c **** 	TESTPIN_OUTPUT_LOW; 
 193              		.loc 1 177 0
 194 000e 114A     		ldr	r2, .L14
 195 0010 104B     		ldr	r3, .L14
 196 0012 1B78     		ldrb	r3, [r3]
 197 0014 DBB2     		uxtb	r3, r3
 198 0016 23F02003 		bic	r3, r3, #32
 199 001a DBB2     		uxtb	r3, r3
 200 001c 1370     		strb	r3, [r2]
 178:TimeoutCalc.c **** 	
 179:TimeoutCalc.c **** 	for(timestamp = 0; timestamp < 1; timestamp++)
 201              		.loc 1 179 0
 202 001e 0023     		movs	r3, #0
 203 0020 FB80     		strh	r3, [r7, #6]	@ movhi
 204 0022 09E0     		b	.L12
 205              	.L13:
 180:TimeoutCalc.c ****     {
 181:TimeoutCalc.c **** 		Swd_LineReset();
 206              		.loc 1 181 0 discriminator 3
 207 0024 FFF7FEFF 		bl	Swd_LineReset
 182:TimeoutCalc.c **** 		Read_DAP(DPACC_DP_IDCODE_READ, &chip_DAP_Id);
 208              		.loc 1 182 0 discriminator 3
 209 0028 3B46     		mov	r3, r7
 210 002a A520     		movs	r0, #165
 211 002c 1946     		mov	r1, r3
 212 002e FFF7FEFF 		bl	Read_DAP
 179:TimeoutCalc.c ****     {
 213              		.loc 1 179 0 discriminator 3
 214 0032 FB88     		ldrh	r3, [r7, #6]
ARM GAS  C:\Users\WORKBE~1\AppData\Local\Temp\ccKXlGRV.s 			page 8


 215 0034 0133     		adds	r3, r3, #1
 216 0036 FB80     		strh	r3, [r7, #6]	@ movhi
 217              	.L12:
 179:TimeoutCalc.c ****     {
 218              		.loc 1 179 0 is_stmt 0 discriminator 1
 219 0038 FB88     		ldrh	r3, [r7, #6]
 220 003a 002B     		cmp	r3, #0
 221 003c F2D0     		beq	.L13
 183:TimeoutCalc.c **** 	}
 184:TimeoutCalc.c **** 	
 185:TimeoutCalc.c **** 	/* Make the pin high after sending SWD clock train */
 186:TimeoutCalc.c **** 	TESTPIN_OUTPUT_HIGH;
 222              		.loc 1 186 0 is_stmt 1
 223 003e 054A     		ldr	r2, .L14
 224 0040 044B     		ldr	r3, .L14
 225 0042 1B78     		ldrb	r3, [r3]
 226 0044 DBB2     		uxtb	r3, r3
 227 0046 43F02003 		orr	r3, r3, #32
 228 004a DBB2     		uxtb	r3, r3
 229 004c 1370     		strb	r3, [r2]
 187:TimeoutCalc.c **** }
 230              		.loc 1 187 0
 231 004e 0837     		adds	r7, r7, #8
 232              		.cfi_def_cfa_offset 8
 233 0050 BD46     		mov	sp, r7
 234              		.cfi_def_cfa_register 13
 235              		@ sp needed
 236 0052 80BD     		pop	{r7, pc}
 237              	.L15:
 238              		.align	2
 239              	.L14:
 240 0054 00510040 		.word	1073762560
 241              		.cfi_endproc
 242              	.LFE2:
 243              		.size	TestModeTimeout, .-TestModeTimeout
 244              		.text
 245              	.Letext0: